target datalayout = "e-m:e-p270:32:32-p271:32:32-p272:64:64-i64:64-i128:128-f80:128-n8:16:32:64-S128"
target triple = "x86_64-pc-linux-gnu"

%struct._priv_exr_context_t = type { i8, i8, i8, i8, i8, i8, i8, i8, %struct.exr_attr_string_t, %struct.exr_attr_string_t, ptr, ptr, ptr, ptr, ptr, ptr, ptr, ptr, i32, i32, i32, i32, i32, float, ptr, ptr, ptr, i64, ptr, ptr, i64, i32, i32, i32, i32, %struct._priv_exr_part_t, ptr, ptr, %struct.exr_attribute_list, %union.pthread_mutex_t, i8, i8, [2 x i8], i32 }
%struct.exr_attr_string_t = type { i32, i32, ptr }
%struct._priv_exr_part_t = type { i32, i32, %struct.exr_attribute_list, ptr, ptr, ptr, ptr, ptr, ptr, ptr, ptr, ptr, ptr, ptr, ptr, ptr, ptr, %struct.exr_attr_box2i_t, %struct.exr_attr_box2i_t, i32, i32, i32, float, i32, i32, ptr, ptr, ptr, ptr, i64, i16, i16, i32, i64, i64 }
%struct.exr_attr_box2i_t = type { %struct.exr_attr_v2i_t, %struct.exr_attr_v2i_t }
%struct.exr_attr_v2i_t = type { i32, i32 }
%struct.exr_attribute_list = type { i32, i32, ptr, ptr }
%union.pthread_mutex_t = type { %struct.__pthread_mutex_s }
%struct.__pthread_mutex_s = type { i32, i32, i32, i32, i32, i16, i16, %struct.__pthread_internal_list }
%struct.__pthread_internal_list = type { ptr, ptr }
%struct.exr_chunk_info_t = type { i32, i32, i32, i32, i32, i8, i8, i8, i8, i64, i64, i64, i64, i64 }
%struct.exr_coding_channel_info_t = type { ptr, i32, i32, i32, i32, i8, i8, i16, i16, i16, i32, i32, %union.anon }
%union.anon = type { ptr }
%struct._exr_decode_pipeline = type { i64, ptr, i16, i16, i32, ptr, %struct.exr_chunk_info_t, i32, i32, i64, ptr, ptr, i64, ptr, i64, ptr, i64, ptr, i64, ptr, i64, ptr, i64, ptr, ptr, ptr, ptr, ptr, ptr, [5 x %struct.exr_coding_channel_info_t] }

@.str = private unnamed_addr constant [29 x i8] c"Part index (%d) out of range\00", align 1
@.str.5 = private unnamed_addr constant [45 x i8] c"Unable to decompress sample table %lu -> %lu\00", align 1
@.str.6 = private unnamed_addr constant [57 x i8] c"Unable to decompress w %d image data %lu -> %lu, got %lu\00", align 1

; Function Attrs: nounwind uwtable
define i32 @exr_uncompress_chunk(ptr noundef %0) #0 {
  %2 = alloca i32, align 4
  %3 = alloca ptr, align 8
  %4 = alloca i32, align 4
  %5 = alloca ptr, align 8
  %6 = alloca ptr, align 8
  %7 = alloca i32, align 4
  %8 = alloca i64, align 8
  store ptr %0, ptr %3, align 8, !tbaa !56
  call void @llvm.lifetime.start.p0(i64 4, ptr %4) #4
  store i32 0, ptr %4, align 4, !tbaa !10
  call void @llvm.lifetime.start.p0(i64 8, ptr %5) #4
  call void @llvm.lifetime.start.p0(i64 8, ptr %6) #4
  %9 = load ptr, ptr %3, align 8, !tbaa !56
  %10 = icmp ne ptr %9, null
  br i1 %10, label %12, label %11

11:                                               ; preds = %1
  store i32 2, ptr %2, align 4
  store i32 1, ptr %7, align 4
  br label %177

12:                                               ; preds = %1
  %13 = load ptr, ptr %3, align 8, !tbaa !56
  %14 = getelementptr inbounds nuw %struct._exr_decode_pipeline, ptr %13, i32 0, i32 9
  store i64 0, ptr %14, align 8, !tbaa !58
  %15 = load ptr, ptr %3, align 8, !tbaa !56
  %16 = getelementptr inbounds nuw %struct._exr_decode_pipeline, ptr %15, i32 0, i32 5
  %17 = load ptr, ptr %16, align 8, !tbaa !60
  store ptr %17, ptr %5, align 8, !tbaa !7
  %18 = load ptr, ptr %5, align 8, !tbaa !7
  %19 = icmp ne ptr %18, null
  br i1 %19, label %21, label %20

20:                                               ; preds = %12
  store i32 2, ptr %2, align 4
  store i32 1, ptr %7, align 4
  br label %177

21:                                               ; preds = %12
  %22 = load ptr, ptr %3, align 8, !tbaa !56
  %23 = getelementptr inbounds nuw %struct._exr_decode_pipeline, ptr %22, i32 0, i32 4
  %24 = load i32, ptr %23, align 4, !tbaa !61
  %25 = icmp slt i32 %24, 0
  br i1 %25, label %34, label %26

26:                                               ; preds = %21
  %27 = load ptr, ptr %3, align 8, !tbaa !56
  %28 = getelementptr inbounds nuw %struct._exr_decode_pipeline, ptr %27, i32 0, i32 4
  %29 = load i32, ptr %28, align 4, !tbaa !61
  %30 = load ptr, ptr %5, align 8, !tbaa !7
  %31 = getelementptr inbounds nuw %struct._priv_exr_context_t, ptr %30, i32 0, i32 34
  %32 = load i32, ptr %31, align 4, !tbaa !40
  %33 = icmp sge i32 %29, %32
  br i1 %33, label %34, label %43

34:                                               ; preds = %26, %21
  %35 = load ptr, ptr %5, align 8, !tbaa !7
  %36 = getelementptr inbounds nuw %struct._priv_exr_context_t, ptr %35, i32 0, i32 14
  %37 = load ptr, ptr %36, align 8, !tbaa !41
  %38 = load ptr, ptr %5, align 8, !tbaa !7
  %39 = load ptr, ptr %3, align 8, !tbaa !56
  %40 = getelementptr inbounds nuw %struct._exr_decode_pipeline, ptr %39, i32 0, i32 4
  %41 = load i32, ptr %40, align 4, !tbaa !61
  %42 = call i32 (ptr, i32, ptr, ...) %37(ptr noundef %38, i32 noundef 4, ptr noundef @.str, i32 noundef %41)
  store i32 %42, ptr %2, align 4
  store i32 1, ptr %7, align 4
  br label %177

43:                                               ; preds = %26
  %44 = load ptr, ptr %5, align 8, !tbaa !7
  %45 = getelementptr inbounds nuw %struct._priv_exr_context_t, ptr %44, i32 0, i32 37
  %46 = load ptr, ptr %45, align 8, !tbaa !42
  %47 = load ptr, ptr %3, align 8, !tbaa !56
  %48 = getelementptr inbounds nuw %struct._exr_decode_pipeline, ptr %47, i32 0, i32 4
  %49 = load i32, ptr %48, align 4, !tbaa !61
  %50 = sext i32 %49 to i64
  %51 = getelementptr inbounds ptr, ptr %46, i64 %50
  %52 = load ptr, ptr %51, align 8, !tbaa !43
  store ptr %52, ptr %6, align 8, !tbaa !43
  %53 = load ptr, ptr %3, align 8, !tbaa !56
  %54 = getelementptr inbounds nuw %struct._exr_decode_pipeline, ptr %53, i32 0, i32 15
  %55 = load ptr, ptr %54, align 8, !tbaa !62
  %56 = icmp ne ptr %55, null
  br i1 %56, label %57, label %106

57:                                               ; preds = %43
  call void @llvm.lifetime.start.p0(i64 8, ptr %8) #4
  %58 = load ptr, ptr %3, align 8, !tbaa !56
  %59 = getelementptr inbounds nuw %struct._exr_decode_pipeline, ptr %58, i32 0, i32 6
  %60 = getelementptr inbounds nuw %struct.exr_chunk_info_t, ptr %59, i32 0, i32 4
  %61 = load i32, ptr %60, align 8, !tbaa !63
  %62 = sext i32 %61 to i64
  %63 = load ptr, ptr %3, align 8, !tbaa !56
  %64 = getelementptr inbounds nuw %struct._exr_decode_pipeline, ptr %63, i32 0, i32 6
  %65 = getelementptr inbounds nuw %struct.exr_chunk_info_t, ptr %64, i32 0, i32 3
  %66 = load i32, ptr %65, align 4, !tbaa !64
  %67 = sext i32 %66 to i64
  %68 = mul i64 %62, %67
  store i64 %68, ptr %8, align 8, !tbaa !3
  %69 = load i64, ptr %8, align 8, !tbaa !3
  %70 = mul i64 %69, 4
  store i64 %70, ptr %8, align 8, !tbaa !3
  %71 = load ptr, ptr %5, align 8, !tbaa !7
  %72 = load ptr, ptr %6, align 8, !tbaa !43
  %73 = getelementptr inbounds nuw %struct._priv_exr_part_t, ptr %72, i32 0, i32 19
  %74 = load i32, ptr %73, align 8, !tbaa !49
  %75 = load ptr, ptr %3, align 8, !tbaa !56
  %76 = load ptr, ptr %3, align 8, !tbaa !56
  %77 = getelementptr inbounds nuw %struct._exr_decode_pipeline, ptr %76, i32 0, i32 15
  %78 = load ptr, ptr %77, align 8, !tbaa !62
  %79 = load ptr, ptr %3, align 8, !tbaa !56
  %80 = getelementptr inbounds nuw %struct._exr_decode_pipeline, ptr %79, i32 0, i32 6
  %81 = getelementptr inbounds nuw %struct.exr_chunk_info_t, ptr %80, i32 0, i32 13
  %82 = load i64, ptr %81, align 8, !tbaa !65
  %83 = load ptr, ptr %3, align 8, !tbaa !56
  %84 = getelementptr inbounds nuw %struct._exr_decode_pipeline, ptr %83, i32 0, i32 17
  %85 = load ptr, ptr %84, align 8, !tbaa !66
  %86 = load i64, ptr %8, align 8, !tbaa !3
  %87 = call i32 @decompress_data(ptr noundef %71, i32 noundef %74, ptr noundef %75, ptr noundef %78, i64 noundef %82, ptr noundef %85, i64 noundef %86)
  store i32 %87, ptr %4, align 4, !tbaa !10
  %88 = load i32, ptr %4, align 4, !tbaa !10
  %89 = icmp ne i32 %88, 0
  br i1 %89, label %90, label %102

90:                                               ; preds = %57
  %91 = load ptr, ptr %5, align 8, !tbaa !7
  %92 = getelementptr inbounds nuw %struct._priv_exr_context_t, ptr %91, i32 0, i32 14
  %93 = load ptr, ptr %92, align 8, !tbaa !41
  %94 = load ptr, ptr %5, align 8, !tbaa !7
  %95 = load i32, ptr %4, align 4, !tbaa !10
  %96 = load ptr, ptr %3, align 8, !tbaa !56
  %97 = getelementptr inbounds nuw %struct._exr_decode_pipeline, ptr %96, i32 0, i32 6
  %98 = getelementptr inbounds nuw %struct.exr_chunk_info_t, ptr %97, i32 0, i32 13
  %99 = load i64, ptr %98, align 8, !tbaa !65
  %100 = load i64, ptr %8, align 8, !tbaa !3
  %101 = call i32 (ptr, i32, ptr, ...) %93(ptr noundef %94, i32 noundef %95, ptr noundef @.str.5, i64 noundef %99, i64 noundef %100)
  store i32 %101, ptr %2, align 4
  store i32 1, ptr %7, align 4
  br label %103

102:                                              ; preds = %57
  store i32 0, ptr %7, align 4
  br label %103

103:                                              ; preds = %102, %90
  call void @llvm.lifetime.end.p0(i64 8, ptr %8) #4
  %104 = load i32, ptr %7, align 4
  switch i32 %104, label %177 [
    i32 0, label %105
  ]

105:                                              ; preds = %103
  br label %106

106:                                              ; preds = %105, %43
  %107 = load ptr, ptr %3, align 8, !tbaa !56
  %108 = getelementptr inbounds nuw %struct._exr_decode_pipeline, ptr %107, i32 0, i32 3
  %109 = load i16, ptr %108, align 2, !tbaa !67
  %110 = zext i16 %109 to i32
  %111 = and i32 %110, 4
  %112 = icmp ne i32 %111, 0
  br i1 %112, label %113, label %115

113:                                              ; preds = %106
  %114 = load i32, ptr %4, align 4, !tbaa !10
  store i32 %114, ptr %2, align 4
  store i32 1, ptr %7, align 4
  br label %177

115:                                              ; preds = %106
  %116 = load i32, ptr %4, align 4, !tbaa !10
  %117 = icmp eq i32 %116, 0
  br i1 %117, label %118, label %151

118:                                              ; preds = %115
  %119 = load ptr, ptr %3, align 8, !tbaa !56
  %120 = getelementptr inbounds nuw %struct._exr_decode_pipeline, ptr %119, i32 0, i32 6
  %121 = getelementptr inbounds nuw %struct.exr_chunk_info_t, ptr %120, i32 0, i32 10
  %122 = load i64, ptr %121, align 8, !tbaa !68
  %123 = icmp ugt i64 %122, 0
  br i1 %123, label %124, label %151

124:                                              ; preds = %118
  %125 = load ptr, ptr %3, align 8, !tbaa !56
  %126 = getelementptr inbounds nuw %struct._exr_decode_pipeline, ptr %125, i32 0, i32 6
  %127 = getelementptr inbounds nuw %struct.exr_chunk_info_t, ptr %126, i32 0, i32 11
  %128 = load i64, ptr %127, align 8, !tbaa !69
  %129 = icmp ugt i64 %128, 0
  br i1 %129, label %130, label %151

130:                                              ; preds = %124
  %131 = load ptr, ptr %5, align 8, !tbaa !7
  %132 = load ptr, ptr %6, align 8, !tbaa !43
  %133 = getelementptr inbounds nuw %struct._priv_exr_part_t, ptr %132, i32 0, i32 19
  %134 = load i32, ptr %133, align 8, !tbaa !49
  %135 = load ptr, ptr %3, align 8, !tbaa !56
  %136 = load ptr, ptr %3, align 8, !tbaa !56
  %137 = getelementptr inbounds nuw %struct._exr_decode_pipeline, ptr %136, i32 0, i32 11
  %138 = load ptr, ptr %137, align 8, !tbaa !70
  %139 = load ptr, ptr %3, align 8, !tbaa !56
  %140 = getelementptr inbounds nuw %struct._exr_decode_pipeline, ptr %139, i32 0, i32 6
  %141 = getelementptr inbounds nuw %struct.exr_chunk_info_t, ptr %140, i32 0, i32 10
  %142 = load i64, ptr %141, align 8, !tbaa !68
  %143 = load ptr, ptr %3, align 8, !tbaa !56
  %144 = getelementptr inbounds nuw %struct._exr_decode_pipeline, ptr %143, i32 0, i32 13
  %145 = load ptr, ptr %144, align 8, !tbaa !71
  %146 = load ptr, ptr %3, align 8, !tbaa !56
  %147 = getelementptr inbounds nuw %struct._exr_decode_pipeline, ptr %146, i32 0, i32 6
  %148 = getelementptr inbounds nuw %struct.exr_chunk_info_t, ptr %147, i32 0, i32 11
  %149 = load i64, ptr %148, align 8, !tbaa !69
  %150 = call i32 @decompress_data(ptr noundef %131, i32 noundef %134, ptr noundef %135, ptr noundef %138, i64 noundef %142, ptr noundef %145, i64 noundef %149)
  store i32 %150, ptr %4, align 4, !tbaa !10
  br label %151

151:                                              ; preds = %130, %124, %118, %115
  %152 = load i32, ptr %4, align 4, !tbaa !10
  %153 = icmp ne i32 %152, 0
  br i1 %153, label %154, label %175

154:                                              ; preds = %151
  %155 = load ptr, ptr %5, align 8, !tbaa !7
  %156 = getelementptr inbounds nuw %struct._priv_exr_context_t, ptr %155, i32 0, i32 14
  %157 = load ptr, ptr %156, align 8, !tbaa !41
  %158 = load ptr, ptr %5, align 8, !tbaa !7
  %159 = load i32, ptr %4, align 4, !tbaa !10
  %160 = load ptr, ptr %6, align 8, !tbaa !43
  %161 = getelementptr inbounds nuw %struct._priv_exr_part_t, ptr %160, i32 0, i32 19
  %162 = load i32, ptr %161, align 8, !tbaa !49
  %163 = load ptr, ptr %3, align 8, !tbaa !56
  %164 = getelementptr inbounds nuw %struct._exr_decode_pipeline, ptr %163, i32 0, i32 6
  %165 = getelementptr inbounds nuw %struct.exr_chunk_info_t, ptr %164, i32 0, i32 10
  %166 = load i64, ptr %165, align 8, !tbaa !68
  %167 = load ptr, ptr %3, align 8, !tbaa !56
  %168 = getelementptr inbounds nuw %struct._exr_decode_pipeline, ptr %167, i32 0, i32 6
  %169 = getelementptr inbounds nuw %struct.exr_chunk_info_t, ptr %168, i32 0, i32 11
  %170 = load i64, ptr %169, align 8, !tbaa !69
  %171 = load ptr, ptr %3, align 8, !tbaa !56
  %172 = getelementptr inbounds nuw %struct._exr_decode_pipeline, ptr %171, i32 0, i32 9
  %173 = load i64, ptr %172, align 8, !tbaa !58
  %174 = call i32 (ptr, i32, ptr, ...) %157(ptr noundef %158, i32 noundef %159, ptr noundef @.str.6, i32 noundef %162, i64 noundef %166, i64 noundef %170, i64 noundef %173)
  store i32 %174, ptr %2, align 4
  store i32 1, ptr %7, align 4
  br label %177

175:                                              ; preds = %151
  %176 = load i32, ptr %4, align 4, !tbaa !10
  store i32 %176, ptr %2, align 4
  store i32 1, ptr %7, align 4
  br label %177

177:                                              ; preds = %175, %154, %113, %103, %34, %20, %11
  call void @llvm.lifetime.end.p0(i64 8, ptr %6) #4
  call void @llvm.lifetime.end.p0(i64 8, ptr %5) #4
  call void @llvm.lifetime.end.p0(i64 4, ptr %4) #4
  %178 = load i32, ptr %2, align 4
  ret i32 %178
}