; Function Attrs: nounwind uwtable
define i32 @exr_uncompress_chunk(ptr noundef %0) local_unnamed_addr #0 {
  %.not = icmp eq ptr %0, null
  br i1 %.not, label %.thread70, label %2

2:                                                ; preds = %1
  %3 = getelementptr inbounds nuw i8, ptr %0, i64 104
  store i64 0, ptr %3, align 8, !tbaa !46
  %4 = getelementptr inbounds nuw i8, ptr %0, i64 24
  %5 = load ptr, ptr %4, align 8, !tbaa !48
  %.not61 = icmp eq ptr %5, null
  br i1 %.not61, label %.thread70, label %6

6:                                                ; preds = %2
  %7 = getelementptr inbounds nuw i8, ptr %0, i64 20
  %8 = load i32, ptr %7, align 4, !tbaa !49
  %9 = icmp slt i32 %8, 0
  br i1 %9, label %13, label %10

10:                                               ; preds = %6
  %11 = getelementptr inbounds nuw i8, ptr %5, i64 196
  %12 = load i32, ptr %11, align 4, !tbaa !30
  %.not62 = icmp slt i32 %8, %12
  br i1 %.not62, label %17, label %13

13:                                               ; preds = %10, %6
  %14 = getelementptr inbounds nuw i8, ptr %5, i64 72
  %15 = load ptr, ptr %14, align 8, !tbaa !31
  %16 = tail call i32 (ptr, i32, ptr, ...) %15(ptr noundef nonnull %5, i32 noundef 4, ptr noundef nonnull @.str, i32 noundef %8) #6
  br label %.thread70

17:                                               ; preds = %10
  %18 = getelementptr inbounds nuw i8, ptr %5, i64 472
  %19 = load ptr, ptr %18, align 8, !tbaa !32
  %20 = zext nneg i32 %8 to i64
  %21 = getelementptr inbounds nuw ptr, ptr %19, i64 %20
  %22 = load ptr, ptr %21, align 8, !tbaa !33
  %23 = getelementptr inbounds nuw i8, ptr %0, i64 152
  %24 = load ptr, ptr %23, align 8, !tbaa !50
  %.not63 = icmp eq ptr %24, null
  br i1 %.not63, label %.thread, label %25

25:                                               ; preds = %17
  %26 = getelementptr inbounds nuw i8, ptr %0, i64 48
  %27 = load i32, ptr %26, align 8, !tbaa !51
  %28 = sext i32 %27 to i64
  %29 = getelementptr inbounds nuw i8, ptr %0, i64 44
  %30 = load i32, ptr %29, align 4, !tbaa !52
  %31 = sext i32 %30 to i64
  %32 = shl nsw i64 %28, 2
  %33 = mul i64 %32, %31
  %34 = getelementptr inbounds nuw i8, ptr %22, i64 176
  %35 = load i32, ptr %34, align 8, !tbaa !39
  %36 = getelementptr inbounds nuw i8, ptr %0, i64 88
  %37 = load i64, ptr %36, align 8, !tbaa !53
  %38 = getelementptr inbounds nuw i8, ptr %0, i64 168
  %39 = load ptr, ptr %38, align 8, !tbaa !54
  %40 = tail call fastcc i32 @decompress_data(ptr noundef %5, i32 noundef %35, ptr noundef %0, ptr noundef nonnull %24, i64 noundef %37, ptr noundef %39, i64 noundef %33)
  %.not64 = icmp eq i32 %40, 0
  br i1 %.not64, label %.thread, label %41

41:                                               ; preds = %25
  %42 = getelementptr inbounds nuw i8, ptr %5, i64 72
  %43 = load ptr, ptr %42, align 8, !tbaa !31
  %44 = load i64, ptr %36, align 8, !tbaa !53
  %45 = tail call i32 (ptr, i32, ptr, ...) %43(ptr noundef nonnull %5, i32 noundef %40, ptr noundef nonnull @.str.5, i64 noundef %44, i64 noundef %33) #6
  br label %.thread70

.thread:                                          ; preds = %25, %17
  %46 = getelementptr inbounds nuw i8, ptr %0, i64 18
  %47 = load i16, ptr %46, align 2, !tbaa !55
  %48 = and i16 %47, 4
  %.not65 = icmp eq i16 %48, 0
  br i1 %.not65, label %49, label %.thread70

49:                                               ; preds = %.thread
  %50 = getelementptr inbounds nuw i8, ptr %0, i64 64
  %51 = load i64, ptr %50, align 8, !tbaa !56
  %.not66 = icmp eq i64 %51, 0
  br i1 %.not66, label %.thread70, label %52

52:                                               ; preds = %49
  %53 = getelementptr inbounds nuw i8, ptr %0, i64 72
  %54 = load i64, ptr %53, align 8, !tbaa !57
  %.not67 = icmp eq i64 %54, 0
  br i1 %.not67, label %.thread70, label %55

55:                                               ; preds = %52
  %56 = getelementptr inbounds nuw i8, ptr %22, i64 176
  %57 = load i32, ptr %56, align 8, !tbaa !39
  %58 = getelementptr inbounds nuw i8, ptr %0, i64 120
  %59 = load ptr, ptr %58, align 8, !tbaa !58
  %60 = getelementptr inbounds nuw i8, ptr %0, i64 136
  %61 = load ptr, ptr %60, align 8, !tbaa !59
  %62 = tail call fastcc i32 @decompress_data(ptr noundef %5, i32 noundef %57, ptr noundef %0, ptr noundef %59, i64 noundef %51, ptr noundef %61, i64 noundef %54)
  %.not68 = icmp eq i32 %62, 0
  br i1 %.not68, label %.thread70, label %63

63:                                               ; preds = %55
  %64 = getelementptr inbounds nuw i8, ptr %5, i64 72
  %65 = load ptr, ptr %64, align 8, !tbaa !31
  %66 = load i32, ptr %56, align 8, !tbaa !39
  %67 = load i64, ptr %50, align 8, !tbaa !56
  %68 = load i64, ptr %53, align 8, !tbaa !57
  %69 = load i64, ptr %3, align 8, !tbaa !46
  %70 = tail call i32 (ptr, i32, ptr, ...) %65(ptr noundef nonnull %5, i32 noundef %62, ptr noundef nonnull @.str.6, i32 noundef %66, i64 noundef %67, i64 noundef %68, i64 noundef %69) #6
  br label %.thread70

.thread70:                                        ; preds = %49, %52, %41, %55, %.thread, %2, %1, %63, %13
  %.051 = phi i32 [ %16, %13 ], [ %70, %63 ], [ %45, %41 ], [ 2, %1 ], [ 2, %2 ], [ 0, %.thread ], [ 0, %55 ], [ 0, %52 ], [ 0, %49 ]
  ret i32 %.051
}